; Function Attrs: mustprogress nounwind uwtable
define hidden void @_ZN8JVMCIEnv25set_Architecture_wordKindE11JVMCIObjectS0_(ptr noundef nonnull align 8 dereferenceable(64) %0, ptr %1, i8 %2, ptr %3, i8 %4) local_unnamed_addr #0 align 2 {
  %6 = getelementptr inbounds i8, ptr %0, i64 24
  %7 = load i8, ptr %6, align 8
  %8 = trunc i8 %7 to i1
  br i1 %8, label %9, label %12

9:                                                ; preds = %5
  %10 = tail call noundef ptr @_ZN12HotSpotJVMCI7resolveE11JVMCIObject(ptr %1, i8 %2) #14
  %11 = tail call noundef ptr @_ZN12HotSpotJVMCI7resolveE11JVMCIObject(ptr %3, i8 %4) #14
  tail call void @_ZN12HotSpotJVMCI12Architecture12set_wordKindEP8JVMCIEnvP7oopDescS4_(ptr noundef nonnull %0, ptr noundef %10, ptr noundef %11) #14
  br label %13

12:                                               ; preds = %5
  tail call void @_ZN8JNIJVMCI12Architecture12set_wordKindEP8JVMCIEnv11JVMCIObjectS3_(ptr noundef nonnull %0, ptr %1, i8 %2, ptr %3, i8 %4) #14
  br label %13

13:                                               ; preds = %12, %9
  ret void
}